target datalayout = "e-m:e-p270:32:32-p271:32:32-p272:64:64-i64:64-i128:128-f80:128-n8:16:32:64-S128"
target triple = "x86_64-pc-linux-gnu"

; Function Attrs: nounwind uwtable
define internal void @RescalePlane(ptr noundef %0, i32 noundef %1, i32 noundef %2, i32 noundef %3, i32 noundef %4, i32 noundef %5) #0 {
  %7 = alloca ptr, align 8
  %8 = alloca i32, align 4
  %9 = alloca i32, align 4
  %10 = alloca i32, align 4
  %11 = alloca i32, align 4
  %12 = alloca i32, align 4
  %13 = alloca i32, align 4
  %14 = alloca i32, align 4
  %15 = alloca i32, align 4
  %16 = alloca ptr, align 8
  %17 = alloca i32, align 4
  store ptr %0, ptr %7, align 8, !tbaa !13
  store i32 %1, ptr %8, align 4, !tbaa !4
  store i32 %2, ptr %9, align 4, !tbaa !4
  store i32 %3, ptr %10, align 4, !tbaa !4
  store i32 %4, ptr %11, align 4, !tbaa !4
  store i32 %5, ptr %12, align 4, !tbaa !4
  call void @llvm.lifetime.start.p0(i64 4, ptr %13) #9
  %18 = load i32, ptr %12, align 4, !tbaa !4
  %19 = icmp sgt i32 %18, 0
  br i1 %19, label %20, label %23

20:                                               ; preds = %6
  %21 = load i32, ptr %12, align 4, !tbaa !4
  %22 = udiv i32 16711680, %21
  br label %24

23:                                               ; preds = %6
  br label %24

24:                                               ; preds = %23, %20
  %25 = phi i32 [ %22, %20 ], [ 0, %23 ]
  store i32 %25, ptr %13, align 4, !tbaa !4
  call void @llvm.lifetime.start.p0(i64 4, ptr %14) #9
  call void @llvm.lifetime.start.p0(i64 4, ptr %15) #9
  store i32 0, ptr %15, align 4, !tbaa !4
  br label %26

26:                                               ; preds = %65, %24
  %27 = load i32, ptr %15, align 4, !tbaa !4
  %28 = load i32, ptr %9, align 4, !tbaa !4
  %29 = icmp slt i32 %27, %28
  br i1 %29, label %30, label %68

30:                                               ; preds = %26
  call void @llvm.lifetime.start.p0(i64 8, ptr %16) #9
  %31 = load ptr, ptr %7, align 8, !tbaa !13
  %32 = load i32, ptr %15, align 4, !tbaa !4
  %33 = load i32, ptr %11, align 4, !tbaa !4
  %34 = mul nsw i32 %32, %33
  %35 = sext i32 %34 to i64
  %36 = getelementptr inbounds i8, ptr %31, i64 %35
  store ptr %36, ptr %16, align 8, !tbaa !13
  store i32 0, ptr %14, align 4, !tbaa !4
  br label %37

37:                                               ; preds = %60, %30
  %38 = load i32, ptr %14, align 4, !tbaa !4
  %39 = load i32, ptr %8, align 4, !tbaa !4
  %40 = load i32, ptr %10, align 4, !tbaa !4
  %41 = mul nsw i32 %39, %40
  %42 = icmp slt i32 %38, %41
  br i1 %42, label %43, label %64

43:                                               ; preds = %37
  call void @llvm.lifetime.start.p0(i64 4, ptr %17) #9
  %44 = load ptr, ptr %16, align 8, !tbaa !13
  %45 = load i32, ptr %14, align 4, !tbaa !4
  %46 = sext i32 %45 to i64
  %47 = getelementptr inbounds i8, ptr %44, i64 %46
  %48 = load i8, ptr %47, align 1, !tbaa !33
  %49 = zext i8 %48 to i32
  %50 = load i32, ptr %13, align 4, !tbaa !4
  %51 = mul i32 %49, %50
  %52 = add i32 %51, 32768
  %53 = lshr i32 %52, 16
  store i32 %53, ptr %17, align 4, !tbaa !4
  %54 = load i32, ptr %17, align 4, !tbaa !4
  %55 = trunc i32 %54 to i8
  %56 = load ptr, ptr %16, align 8, !tbaa !13
  %57 = load i32, ptr %14, align 4, !tbaa !4
  %58 = sext i32 %57 to i64
  %59 = getelementptr inbounds i8, ptr %56, i64 %58
  store i8 %55, ptr %59, align 1, !tbaa !33
  call void @llvm.lifetime.end.p0(i64 4, ptr %17) #9
  br label %60

60:                                               ; preds = %43
  %61 = load i32, ptr %10, align 4, !tbaa !4
  %62 = load i32, ptr %14, align 4, !tbaa !4
  %63 = add nsw i32 %62, %61
  store i32 %63, ptr %14, align 4, !tbaa !4
  br label %37, !llvm.loop !54

64:                                               ; preds = %37
  call void @llvm.lifetime.end.p0(i64 8, ptr %16) #9
  br label %65

65:                                               ; preds = %64
  %66 = load i32, ptr %15, align 4, !tbaa !4
  %67 = add nsw i32 %66, 1
  store i32 %67, ptr %15, align 4, !tbaa !4
  br label %26, !llvm.loop !55

68:                                               ; preds = %26
  call void @llvm.lifetime.end.p0(i64 4, ptr %15) #9
  call void @llvm.lifetime.end.p0(i64 4, ptr %14) #9
  call void @llvm.lifetime.end.p0(i64 4, ptr %13) #9
  ret void
}

; Function Attrs: nounwind uwtable
define internal i32 @DiffScaleChannel(ptr noundef %0, i32 noundef %1, ptr noundef %2, i32 noundef %3, i32 noundef %4, i32 noundef %5, i32 noundef %6, i32 noundef %7) #0 {
  %9 = alloca ptr, align 8
  %10 = alloca i32, align 4
  %11 = alloca ptr, align 8
  %12 = alloca i32, align 4
  %13 = alloca i32, align 4
  %14 = alloca i32, align 4
  %15 = alloca i32, align 4
  %16 = alloca i32, align 4
  %17 = alloca i32, align 4
  %18 = alloca i32, align 4
  %19 = alloca i32, align 4
  %20 = alloca ptr, align 8
  %21 = alloca ptr, align 8
  %22 = alloca i32, align 4
  store ptr %0, ptr %9, align 8, !tbaa !13
  store i32 %1, ptr %10, align 4, !tbaa !4
  store ptr %2, ptr %11, align 8, !tbaa !13
  store i32 %3, ptr %12, align 4, !tbaa !4
  store i32 %4, ptr %13, align 4, !tbaa !4
  store i32 %5, ptr %14, align 4, !tbaa !4
  store i32 %6, ptr %15, align 4, !tbaa !4
  store i32 %7, ptr %16, align 4, !tbaa !4
  call void @llvm.lifetime.start.p0(i64 4, ptr %17) #9
  call void @llvm.lifetime.start.p0(i64 4, ptr %18) #9
  call void @llvm.lifetime.start.p0(i64 4, ptr %19) #9
  store i32 0, ptr %19, align 4, !tbaa !4
  store i32 0, ptr %18, align 4, !tbaa !4
  br label %23

23:                                               ; preds = %78, %8
  %24 = load i32, ptr %18, align 4, !tbaa !4
  %25 = load i32, ptr %15, align 4, !tbaa !4
  %26 = icmp slt i32 %24, %25
  br i1 %26, label %27, label %81

27:                                               ; preds = %23
  call void @llvm.lifetime.start.p0(i64 8, ptr %20) #9
  %28 = load ptr, ptr %9, align 8, !tbaa !13
  %29 = load i32, ptr %18, align 4, !tbaa !4
  %30 = load i32, ptr %10, align 4, !tbaa !4
  %31 = mul nsw i32 %29, %30
  %32 = sext i32 %31 to i64
  %33 = getelementptr inbounds i8, ptr %28, i64 %32
  store ptr %33, ptr %20, align 8, !tbaa !13
  call void @llvm.lifetime.start.p0(i64 8, ptr %21) #9
  %34 = load ptr, ptr %11, align 8, !tbaa !13
  %35 = load i32, ptr %18, align 4, !tbaa !4
  %36 = load i32, ptr %12, align 4, !tbaa !4
  %37 = mul nsw i32 %35, %36
  %38 = sext i32 %37 to i64
  %39 = getelementptr inbounds i8, ptr %34, i64 %38
  store ptr %39, ptr %21, align 8, !tbaa !13
  store i32 0, ptr %17, align 4, !tbaa !4
  br label %40

40:                                               ; preds = %73, %27
  %41 = load i32, ptr %17, align 4, !tbaa !4
  %42 = load i32, ptr %14, align 4, !tbaa !4
  %43 = load i32, ptr %13, align 4, !tbaa !4
  %44 = mul nsw i32 %42, %43
  %45 = icmp slt i32 %41, %44
  br i1 %45, label %46, label %77

46:                                               ; preds = %40
  call void @llvm.lifetime.start.p0(i64 4, ptr %22) #9
  %47 = load ptr, ptr %20, align 8, !tbaa !13
  %48 = load i32, ptr %17, align 4, !tbaa !4
  %49 = sext i32 %48 to i64
  %50 = getelementptr inbounds i8, ptr %47, i64 %49
  %51 = load i8, ptr %50, align 1, !tbaa !33
  %52 = zext i8 %51 to i32
  %53 = load ptr, ptr %21, align 8, !tbaa !13
  %54 = load i32, ptr %17, align 4, !tbaa !4
  %55 = sext i32 %54 to i64
  %56 = getelementptr inbounds i8, ptr %53, i64 %55
  %57 = load i8, ptr %56, align 1, !tbaa !33
  %58 = zext i8 %57 to i32
  %59 = sub nsw i32 %52, %58
  %60 = call i32 @llvm.abs.i32(i32 %59, i1 true)
  store i32 %60, ptr %22, align 4, !tbaa !4
  %61 = load i32, ptr %22, align 4, !tbaa !4
  %62 = load i32, ptr %19, align 4, !tbaa !4
  %63 = icmp sgt i32 %61, %62
  br i1 %63, label %64, label %66

64:                                               ; preds = %46
  %65 = load i32, ptr %22, align 4, !tbaa !4
  store i32 %65, ptr %19, align 4, !tbaa !4
  br label %66

66:                                               ; preds = %64, %46
  %67 = load i32, ptr %22, align 4, !tbaa !4
  %68 = trunc i32 %67 to i8
  %69 = load ptr, ptr %20, align 8, !tbaa !13
  %70 = load i32, ptr %17, align 4, !tbaa !4
  %71 = sext i32 %70 to i64
  %72 = getelementptr inbounds i8, ptr %69, i64 %71
  store i8 %68, ptr %72, align 1, !tbaa !33
  call void @llvm.lifetime.end.p0(i64 4, ptr %22) #9
  br label %73

73:                                               ; preds = %66
  %74 = load i32, ptr %13, align 4, !tbaa !4
  %75 = load i32, ptr %17, align 4, !tbaa !4
  %76 = add nsw i32 %75, %74
  store i32 %76, ptr %17, align 4, !tbaa !4
  br label %40, !llvm.loop !40

77:                                               ; preds = %40
  call void @llvm.lifetime.end.p0(i64 8, ptr %21) #9
  call void @llvm.lifetime.end.p0(i64 8, ptr %20) #9
  br label %78

78:                                               ; preds = %77
  %79 = load i32, ptr %18, align 4, !tbaa !4
  %80 = add nsw i32 %79, 1
  store i32 %80, ptr %18, align 4, !tbaa !4
  br label %23, !llvm.loop !41

81:                                               ; preds = %23
  %82 = load i32, ptr %16, align 4, !tbaa !4
  %83 = icmp ne i32 %82, 0
  br i1 %83, label %84, label %91

84:                                               ; preds = %81
  %85 = load ptr, ptr %9, align 8, !tbaa !13
  %86 = load i32, ptr %14, align 4, !tbaa !4
  %87 = load i32, ptr %15, align 4, !tbaa !4
  %88 = load i32, ptr %13, align 4, !tbaa !4
  %89 = load i32, ptr %10, align 4, !tbaa !4
  %90 = load i32, ptr %19, align 4, !tbaa !4
  call void @RescalePlane(ptr noundef %85, i32 noundef %86, i32 noundef %87, i32 noundef %88, i32 noundef %89, i32 noundef %90)
  br label %91

91:                                               ; preds = %84, %81
  %92 = load i32, ptr %19, align 4, !tbaa !4
  call void @llvm.lifetime.end.p0(i64 4, ptr %19) #9
  call void @llvm.lifetime.end.p0(i64 4, ptr %18) #9
  call void @llvm.lifetime.end.p0(i64 4, ptr %17) #9
  ret i32 %92
}