; Function Attrs: nofree norecurse nosync nounwind memory(argmem: readwrite) uwtable
define internal fastcc range(i32 0, 256) i32 @DiffScaleChannel(ptr noundef captures(none) %0, i32 noundef %1, ptr noundef readonly captures(none) %2, i32 noundef %3, i32 noundef %4, i32 noundef %5, i32 noundef range(i32 0, 2) %6) unnamed_addr #6 {
  %8 = icmp sgt i32 %5, 0
  %9 = icmp sgt i32 %4, 0
  %or.cond = and i1 %8, %9
  br i1 %or.cond, label %.lr.ph.us.preheader, label %._crit_edge41

.lr.ph.us.preheader:                              ; preds = %7
  %10 = shl nsw i32 %4, 2
  %11 = zext nneg i32 %10 to i64
  %12 = sext i32 %1 to i64
  %13 = sext i32 %3 to i64
  %wide.trip.count = zext nneg i32 %5 to i64
  br label %.lr.ph.us

.lr.ph.us:                                        ; preds = %.lr.ph.us.preheader, %._crit_edge.us
  %indvars.iv45 = phi i64 [ 0, %.lr.ph.us.preheader ], [ %indvars.iv.next46, %._crit_edge.us ]
  %.03237.us = phi i32 [ 0, %.lr.ph.us.preheader ], [ %spec.select.us, %._crit_edge.us ]
  %14 = mul nsw i64 %indvars.iv45, %12
  %15 = getelementptr inbounds i8, ptr %0, i64 %14
  %16 = mul nsw i64 %indvars.iv45, %13
  %17 = getelementptr inbounds i8, ptr %2, i64 %16
  br label %18

18:                                               ; preds = %.lr.ph.us, %18
  %indvars.iv = phi i64 [ 0, %.lr.ph.us ], [ %indvars.iv.next, %18 ]
  %.135.us = phi i32 [ %.03237.us, %.lr.ph.us ], [ %spec.select.us, %18 ]
  %19 = getelementptr inbounds nuw i8, ptr %15, i64 %indvars.iv
  %20 = load i8, ptr %19, align 1, !tbaa !27
  %21 = zext i8 %20 to i32
  %22 = getelementptr inbounds nuw i8, ptr %17, i64 %indvars.iv
  %23 = load i8, ptr %22, align 1, !tbaa !27
  %24 = zext i8 %23 to i32
  %25 = sub nsw i32 %21, %24
  %26 = tail call i32 @llvm.abs.i32(i32 %25, i1 true)
  %spec.select.us = tail call i32 @llvm.umax.i32(i32 %26, i32 %.135.us)
  %27 = trunc nuw i32 %26 to i8
  store i8 %27, ptr %19, align 1, !tbaa !27
  %indvars.iv.next = add nuw nsw i64 %indvars.iv, 4
  %28 = icmp samesign ult i64 %indvars.iv.next, %11
  br i1 %28, label %18, label %._crit_edge.us, !llvm.loop !37

._crit_edge.us:                                   ; preds = %18
  %indvars.iv.next46 = add nuw nsw i64 %indvars.iv45, 1
  %exitcond.not = icmp eq i64 %indvars.iv.next46, %wide.trip.count
  br i1 %exitcond.not, label %._crit_edge41, label %.lr.ph.us, !llvm.loop !38

._crit_edge41:                                    ; preds = %._crit_edge.us, %7
  %.032.lcssa = phi i32 [ 0, %7 ], [ %spec.select.us, %._crit_edge.us ]
  %.not = icmp eq i32 %6, 0
  br i1 %.not, label %RescalePlane.exit, label %29

29:                                               ; preds = %._crit_edge41
  %.not.i = icmp eq i32 %.032.lcssa, 0
  br i1 %.not.i, label %32, label %30

30:                                               ; preds = %29
  %31 = udiv i32 16711680, %.032.lcssa
  br label %32

32:                                               ; preds = %30, %29
  %33 = phi i32 [ %31, %30 ], [ 0, %29 ]
  %34 = icmp sgt i32 %4, 0
  %or.cond.i = and i1 %34, %8
  br i1 %or.cond.i, label %.lr.ph.us.preheader.i, label %RescalePlane.exit

.lr.ph.us.preheader.i:                            ; preds = %32
  %35 = shl nsw i32 %4, 2
  %36 = zext nneg i32 %35 to i64
  %37 = sext i32 %1 to i64
  %wide.trip.count.i = zext nneg i32 %5 to i64
  br label %.lr.ph.us.i

.lr.ph.us.i:                                      ; preds = %._crit_edge.us.i, %.lr.ph.us.preheader.i
  %indvars.iv27.i = phi i64 [ 0, %.lr.ph.us.preheader.i ], [ %indvars.iv.next28.i, %._crit_edge.us.i ]
  %38 = mul nsw i64 %indvars.iv27.i, %37
  %39 = getelementptr inbounds i8, ptr %0, i64 %38
  br label %40

40:                                               ; preds = %40, %.lr.ph.us.i
  %indvars.iv.i = phi i64 [ 0, %.lr.ph.us.i ], [ %indvars.iv.next.i, %40 ]
  %41 = getelementptr inbounds nuw i8, ptr %39, i64 %indvars.iv.i
  %42 = load i8, ptr %41, align 1, !tbaa !27
  %43 = zext i8 %42 to i32
  %44 = mul nuw i32 %33, %43
  %45 = add nuw i32 %44, 32768
  %46 = lshr i32 %45, 16
  %47 = trunc i32 %46 to i8
  store i8 %47, ptr %41, align 1, !tbaa !27
  %indvars.iv.next.i = add nuw nsw i64 %indvars.iv.i, 4
  %48 = icmp samesign ult i64 %indvars.iv.next.i, %36
  br i1 %48, label %40, label %._crit_edge.us.i, !llvm.loop !35

._crit_edge.us.i:                                 ; preds = %40
  %indvars.iv.next28.i = add nuw nsw i64 %indvars.iv27.i, 1
  %exitcond.not.i = icmp eq i64 %indvars.iv.next28.i, %wide.trip.count.i
  br i1 %exitcond.not.i, label %RescalePlane.exit, label %.lr.ph.us.i, !llvm.loop !36

RescalePlane.exit:                                ; preds = %._crit_edge.us.i, %32, %._crit_edge41
  ret i32 %.032.lcssa
}